target datalayout = "e-m:e-p270:32:32-p271:32:32-p272:64:64-i64:64-i128:128-f80:128-n8:16:32:64-S128"
target triple = "x86_64-unknown-linux-gnu"

%"class.std::vector.0" = type { %"struct.std::_Vector_base.1" }
%"struct.std::_Vector_base.1" = type { %"struct.std::_Vector_base<double, std::allocator<double>>::_Vector_impl" }
%"struct.std::_Vector_base<double, std::allocator<double>>::_Vector_impl" = type { %"struct.std::_Vector_base<double, std::allocator<double>>::_Vector_impl_data" }
%"struct.std::_Vector_base<double, std::allocator<double>>::_Vector_impl_data" = type { ptr, ptr, ptr }
%"class.QuantLib::CumulativeBehrensFisher" = type { %"class.std::vector", %"class.std::vector.0", %"class.std::vector.5", %"class.std::vector.0", double, double }
%"class.std::vector" = type { %"struct.std::_Vector_base" }
%"struct.std::_Vector_base" = type { %"struct.std::_Vector_base<int, std::allocator<int>>::_Vector_impl" }
%"struct.std::_Vector_base<int, std::allocator<int>>::_Vector_impl" = type { %"struct.std::_Vector_base<int, std::allocator<int>>::_Vector_impl_data" }
%"struct.std::_Vector_base<int, std::allocator<int>>::_Vector_impl_data" = type { ptr, ptr, ptr }
%"class.std::vector.5" = type { %"struct.std::_Vector_base.6" }
%"struct.std::_Vector_base.6" = type { %"struct.std::_Vector_base<std::vector<double>, std::allocator<std::vector<double>>>::_Vector_impl" }
%"struct.std::_Vector_base<std::vector<double>, std::allocator<std::vector<double>>>::_Vector_impl" = type { %"struct.std::_Vector_base<std::vector<double>, std::allocator<std::vector<double>>>::_Vector_impl_data" }
%"struct.std::_Vector_base<std::vector<double>, std::allocator<std::vector<double>>>::_Vector_impl_data" = type { ptr, ptr, ptr }

; Function Attrs: mustprogress nounwind uwtable
define linkonce_odr noundef i64 @_ZNKSt6vectorIdSaIdEE4sizeEv(ptr noundef nonnull align 8 dereferenceable(24) %this) #1 comdat align 2 {
entry:
  %this.addr = alloca ptr, align 8
  store ptr %this, ptr %this.addr, align 8, !tbaa !3
  %this1 = load ptr, ptr %this.addr, align 8
  %_M_impl = getelementptr inbounds nuw %"struct.std::_Vector_base.1", ptr %this1, i32 0, i32 0
  %_M_finish = getelementptr inbounds nuw %"struct.std::_Vector_base<double, std::allocator<double>>::_Vector_impl_data", ptr %_M_impl, i32 0, i32 1
  %0 = load ptr, ptr %_M_finish, align 8, !tbaa !37
  %_M_impl2 = getelementptr inbounds nuw %"struct.std::_Vector_base.1", ptr %this1, i32 0, i32 0
  %_M_start = getelementptr inbounds nuw %"struct.std::_Vector_base<double, std::allocator<double>>::_Vector_impl_data", ptr %_M_impl2, i32 0, i32 0
  %1 = load ptr, ptr %_M_start, align 8, !tbaa !36
  %sub.ptr.lhs.cast = ptrtoint ptr %0 to i64
  %sub.ptr.rhs.cast = ptrtoint ptr %1 to i64
  %sub.ptr.sub = sub i64 %sub.ptr.lhs.cast, %sub.ptr.rhs.cast
  %sub.ptr.div = sdiv exact i64 %sub.ptr.sub, 8
  ret i64 %sub.ptr.div
}

; Function Attrs: mustprogress nounwind uwtable
define linkonce_odr noundef nonnull align 8 dereferenceable(8) ptr @_ZNSt6vectorIdSaIdEEixEm(ptr noundef nonnull align 8 dereferenceable(24) %this, i64 noundef %__n) #1 comdat align 2 {
entry:
  %this.addr = alloca ptr, align 8
  %__n.addr = alloca i64, align 8
  store ptr %this, ptr %this.addr, align 8, !tbaa !3
  store i64 %__n, ptr %__n.addr, align 8, !tbaa !25
  %this1 = load ptr, ptr %this.addr, align 8
  %_M_impl = getelementptr inbounds nuw %"struct.std::_Vector_base.1", ptr %this1, i32 0, i32 0
  %_M_start = getelementptr inbounds nuw %"struct.std::_Vector_base<double, std::allocator<double>>::_Vector_impl_data", ptr %_M_impl, i32 0, i32 0
  %0 = load ptr, ptr %_M_start, align 8, !tbaa !36
  %1 = load i64, ptr %__n.addr, align 8, !tbaa !25
  %add.ptr = getelementptr inbounds nuw double, ptr %0, i64 %1
  ret ptr %add.ptr
}

; Function Attrs: mustprogress uwtable
define noundef double @_ZNK8QuantLib23CumulativeBehrensFisherclEd(ptr noundef nonnull align 8 dereferenceable(112) %this, double noundef %x) #0 align 2 {
entry:
  %this.addr = alloca ptr, align 8
  %x.addr = alloca double, align 8
  %integral = alloca double, align 8
  %squared = alloca double, align 8
  %rootsqr = alloca double, align 8
  %atan2xa = alloca double, align 8
  %exponent = alloca i64, align 8
  store ptr %this, ptr %this.addr, align 8, !tbaa !3
  store double %x, ptr %x.addr, align 8, !tbaa !7
  %this1 = load ptr, ptr %this.addr, align 8
  call void @llvm.lifetime.start.p0(i64 8, ptr %integral) #16
  %polyConvolved_ = getelementptr inbounds nuw %"class.QuantLib::CumulativeBehrensFisher", ptr %this1, i32 0, i32 3
  %call = call noundef nonnull align 8 dereferenceable(8) ptr @_ZNSt6vectorIdSaIdEEixEm(ptr noundef nonnull align 8 dereferenceable(24) %polyConvolved_, i64 noundef 0) #16
  %0 = load double, ptr %call, align 8, !tbaa !7
  %1 = load double, ptr %x.addr, align 8, !tbaa !7
  %a_ = getelementptr inbounds nuw %"class.QuantLib::CumulativeBehrensFisher", ptr %this1, i32 0, i32 4
  %2 = load double, ptr %a_, align 8, !tbaa !9
  %div = fdiv double %1, %2
  %call2 = call double @atan(double noundef %div) #16, !tbaa !23
  %mul = fmul double %0, %call2
  store double %mul, ptr %integral, align 8, !tbaa !7
  call void @llvm.lifetime.start.p0(i64 8, ptr %squared) #16
  %a2_ = getelementptr inbounds nuw %"class.QuantLib::CumulativeBehrensFisher", ptr %this1, i32 0, i32 5
  %3 = load double, ptr %a2_, align 8, !tbaa !33
  %4 = load double, ptr %x.addr, align 8, !tbaa !7
  %5 = load double, ptr %x.addr, align 8, !tbaa !7
  %6 = call double @llvm.fmuladd.f64(double %4, double %5, double %3)
  store double %6, ptr %squared, align 8, !tbaa !7
  call void @llvm.lifetime.start.p0(i64 8, ptr %rootsqr) #16
  %7 = load double, ptr %squared, align 8, !tbaa !7
  %call4 = call double @sqrt(double noundef %7) #16, !tbaa !23
  store double %call4, ptr %rootsqr, align 8, !tbaa !7
  call void @llvm.lifetime.start.p0(i64 8, ptr %atan2xa) #16
  %8 = load double, ptr %x.addr, align 8, !tbaa !7
  %fneg = fneg double %8
  %a_5 = getelementptr inbounds nuw %"class.QuantLib::CumulativeBehrensFisher", ptr %this1, i32 0, i32 4
  %9 = load double, ptr %a_5, align 8, !tbaa !9
  %call6 = call double @atan2(double noundef %fneg, double noundef %9) #16, !tbaa !23
  store double %call6, ptr %atan2xa, align 8, !tbaa !7
  %polyConvolved_7 = getelementptr inbounds nuw %"class.QuantLib::CumulativeBehrensFisher", ptr %this1, i32 0, i32 3
  %call8 = call noundef i64 @_ZNKSt6vectorIdSaIdEE4sizeEv(ptr noundef nonnull align 8 dereferenceable(24) %polyConvolved_7) #16
  %cmp = icmp ugt i64 %call8, 1
  br i1 %cmp, label %if.then, label %if.end

if.then:                                          ; preds = %entry
  %polyConvolved_9 = getelementptr inbounds nuw %"class.QuantLib::CumulativeBehrensFisher", ptr %this1, i32 0, i32 3
  %call10 = call noundef nonnull align 8 dereferenceable(8) ptr @_ZNSt6vectorIdSaIdEEixEm(ptr noundef nonnull align 8 dereferenceable(24) %polyConvolved_9, i64 noundef 1) #16
  %10 = load double, ptr %call10, align 8, !tbaa !7
  %11 = load double, ptr %x.addr, align 8, !tbaa !7
  %mul11 = fmul double %10, %11
  %12 = load double, ptr %squared, align 8, !tbaa !7
  %div12 = fdiv double %mul11, %12
  %13 = load double, ptr %integral, align 8, !tbaa !7
  %add = fadd double %13, %div12
  store double %add, ptr %integral, align 8, !tbaa !7
  br label %if.end

if.end:                                           ; preds = %if.then, %entry
  call void @llvm.lifetime.start.p0(i64 8, ptr %exponent) #16
  store i64 2, ptr %exponent, align 8, !tbaa !25
  br label %for.cond

for.cond:                                         ; preds = %for.inc, %if.end
  %14 = load i64, ptr %exponent, align 8, !tbaa !25
  %polyConvolved_13 = getelementptr inbounds nuw %"class.QuantLib::CumulativeBehrensFisher", ptr %this1, i32 0, i32 3
  %call14 = call noundef i64 @_ZNKSt6vectorIdSaIdEE4sizeEv(ptr noundef nonnull align 8 dereferenceable(24) %polyConvolved_13) #16
  %cmp15 = icmp ult i64 %14, %call14
  br i1 %cmp15, label %for.body, label %for.cond.cleanup

for.cond.cleanup:                                 ; preds = %for.cond
  call void @llvm.lifetime.end.p0(i64 8, ptr %exponent) #16
  br label %for.end

for.body:                                         ; preds = %for.cond
  %polyConvolved_16 = getelementptr inbounds nuw %"class.QuantLib::CumulativeBehrensFisher", ptr %this1, i32 0, i32 3
  %15 = load i64, ptr %exponent, align 8, !tbaa !25
  %call17 = call noundef nonnull align 8 dereferenceable(8) ptr @_ZNSt6vectorIdSaIdEEixEm(ptr noundef nonnull align 8 dereferenceable(24) %polyConvolved_16, i64 noundef %15) #16
  %16 = load double, ptr %call17, align 8, !tbaa !7
  %17 = load i64, ptr %exponent, align 8, !tbaa !25
  %sub = sub i64 %17, 1
  %conv = trunc i64 %sub to i32
  %call18 = call noundef double @_ZN8QuantLib9Factorial3getEj(i32 noundef %conv)
  %mul19 = fmul double %16, %call18
  %18 = load i64, ptr %exponent, align 8, !tbaa !25
  %conv20 = uitofp i64 %18 to double
  %19 = load double, ptr %atan2xa, align 8, !tbaa !7
  %mul21 = fmul double %conv20, %19
  %call22 = call double @sin(double noundef %mul21) #16, !tbaa !23
  %mul23 = fmul double %mul19, %call22
  %20 = load double, ptr %rootsqr, align 8, !tbaa !7
  %21 = load i64, ptr %exponent, align 8, !tbaa !25
  %conv24 = uitofp i64 %21 to double
  %call25 = call double @pow(double noundef %20, double noundef %conv24) #16, !tbaa !23
  %div26 = fdiv double %mul23, %call25
  %22 = load double, ptr %integral, align 8, !tbaa !7
  %sub27 = fsub double %22, %div26
  store double %sub27, ptr %integral, align 8, !tbaa !7
  br label %for.inc

for.inc:                                          ; preds = %for.body
  %23 = load i64, ptr %exponent, align 8, !tbaa !25
  %inc = add i64 %23, 1
  store i64 %inc, ptr %exponent, align 8, !tbaa !25
  br label %for.cond, !llvm.loop !54

for.end:                                          ; preds = %for.cond.cleanup
  %24 = load double, ptr %integral, align 8, !tbaa !7
  %div28 = fdiv double %24, 0x400921FB54442D18
  %add29 = fadd double 5.000000e-01, %div28
  call void @llvm.lifetime.end.p0(i64 8, ptr %atan2xa) #16
  call void @llvm.lifetime.end.p0(i64 8, ptr %rootsqr) #16
  call void @llvm.lifetime.end.p0(i64 8, ptr %squared) #16
  call void @llvm.lifetime.end.p0(i64 8, ptr %integral) #16
  ret double %add29
}