; Function Attrs: mustprogress uwtable
define noundef double @_ZNK8QuantLib23CumulativeBehrensFisherclEd(ptr nocapture noundef nonnull readonly align 8 dereferenceable(112) %this, double noundef %x) local_unnamed_addr #0 align 2 {
entry:
  %polyConvolved_ = getelementptr inbounds nuw i8, ptr %this, i64 72
  %0 = load ptr, ptr %polyConvolved_, align 8, !tbaa !14
  %1 = load double, ptr %0, align 8, !tbaa !16
  %a_ = getelementptr inbounds nuw i8, ptr %this, i64 96
  %2 = load double, ptr %a_, align 8, !tbaa !18
  %div = fdiv double %x, %2
  %call2 = tail call double @atan(double noundef %div) #22, !tbaa !36
  %mul = fmul double %1, %call2
  %a2_ = getelementptr inbounds nuw i8, ptr %this, i64 104
  %3 = load double, ptr %a2_, align 8, !tbaa !48
  %4 = tail call double @llvm.fmuladd.f64(double %x, double %x, double %3)
  %call4 = tail call double @sqrt(double noundef %4) #22, !tbaa !36
  %fneg = fneg double %x
  %call6 = tail call double @atan2(double noundef %fneg, double noundef %2) #22, !tbaa !36
  %_M_finish.i = getelementptr inbounds nuw i8, ptr %this, i64 80
  %5 = load ptr, ptr %_M_finish.i, align 8, !tbaa !12
  %sub.ptr.lhs.cast.i = ptrtoint ptr %5 to i64
  %sub.ptr.rhs.cast.i = ptrtoint ptr %0 to i64
  %sub.ptr.sub.i = sub i64 %sub.ptr.lhs.cast.i, %sub.ptr.rhs.cast.i
  %cmp = icmp ugt i64 %sub.ptr.sub.i, 8
  br i1 %cmp, label %if.end, label %for.cond.cleanup

if.end:                                           ; preds = %entry
  %add.ptr.i = getelementptr inbounds nuw i8, ptr %0, i64 8
  %6 = load double, ptr %add.ptr.i, align 8, !tbaa !16
  %mul11 = fmul double %x, %6
  %div12 = fdiv double %mul11, %4
  %add = fadd double %mul, %div12
  %cmp1523 = icmp ugt i64 %sub.ptr.sub.i, 16
  br i1 %cmp1523, label %for.body, label %for.cond.cleanup

for.cond.cleanup:                                 ; preds = %for.body, %entry, %if.end
  %integral.1.lcssa = phi double [ %add, %if.end ], [ %mul, %entry ], [ %sub27, %for.body ]
  %div28 = fdiv double %integral.1.lcssa, 0x400921FB54442D18
  %add29 = fadd double %div28, 5.000000e-01
  ret double %add29

for.body:                                         ; preds = %if.end, %for.body
  %7 = phi ptr [ %11, %for.body ], [ %0, %if.end ]
  %exponent.025 = phi i64 [ %inc, %for.body ], [ 2, %if.end ]
  %integral.124 = phi double [ %sub27, %for.body ], [ %add, %if.end ]
  %add.ptr.i18 = getelementptr inbounds nuw double, ptr %7, i64 %exponent.025
  %8 = load double, ptr %add.ptr.i18, align 8, !tbaa !16
  %9 = trunc i64 %exponent.025 to i32
  %conv = add i32 %9, -1
  %call18 = tail call noundef double @_ZN8QuantLib9Factorial3getEj(i32 noundef %conv)
  %mul19 = fmul double %8, %call18
  %conv20 = uitofp i64 %exponent.025 to double
  %mul21 = fmul double %call6, %conv20
  %call22 = tail call double @sin(double noundef %mul21) #22, !tbaa !36
  %mul23 = fmul double %mul19, %call22
  %call25 = tail call double @pow(double noundef %call4, double noundef %conv20) #22, !tbaa !36
  %div26 = fdiv double %mul23, %call25
  %sub27 = fsub double %integral.124, %div26
  %inc = add nuw i64 %exponent.025, 1
  %10 = load ptr, ptr %_M_finish.i, align 8, !tbaa !12
  %11 = load ptr, ptr %polyConvolved_, align 8, !tbaa !14
  %sub.ptr.lhs.cast.i14 = ptrtoint ptr %10 to i64
  %sub.ptr.rhs.cast.i15 = ptrtoint ptr %11 to i64
  %sub.ptr.sub.i16 = sub i64 %sub.ptr.lhs.cast.i14, %sub.ptr.rhs.cast.i15
  %sub.ptr.div.i17 = ashr exact i64 %sub.ptr.sub.i16, 3
  %cmp15 = icmp ult i64 %inc, %sub.ptr.div.i17
  br i1 %cmp15, label %for.body, label %for.cond.cleanup, !llvm.loop !63
}